; Function Attrs: mustprogress nounwind uwtable
define dso_local void @_ZN37btSequentialImpulseConstraintSolverMtD0Ev(ptr noundef nonnull align 8 dereferenceable(920) initializes((0, 8)) %0) unnamed_addr #2 align 2 personality ptr @__gxx_personality_v0 {
  tail call void @_ZN37btSequentialImpulseConstraintSolverMtD2Ev(ptr noundef nonnull align 8 dereferenceable(920) %0) #16
  invoke void @_Z21btAlignedFreeInternalPv(ptr noundef nonnull %0)
          to label %_ZN37btSequentialImpulseConstraintSolverMtdlEPv.exit unwind label %2

2:                                                ; preds = %1
  %3 = landingpad { ptr, i32 }
          catch ptr null
  %4 = extractvalue { ptr, i32 } %3, 0
  tail call void @__clang_call_terminate(ptr %4) #15
  unreachable

_ZN37btSequentialImpulseConstraintSolverMtdlEPv.exit: ; preds = %1
  ret void
}